target datalayout = "e-m:e-p270:32:32-p271:32:32-p272:64:64-i64:64-i128:128-f80:128-n8:16:32:64-S128"
target triple = "x86_64-pc-linux-gnu"

%"class.rocksdb::Comparator" = type { %"class.rocksdb::Customizable", %"class.rocksdb::CompareInterface", i64 }
%"class.rocksdb::Customizable" = type { %"class.rocksdb::Configurable" }
%"class.rocksdb::Configurable" = type { ptr, %"class.std::vector.29" }
%"class.std::vector.29" = type { %"struct.std::_Vector_base.30" }
%"struct.std::_Vector_base.30" = type { %"struct.std::_Vector_base<rocksdb::Configurable::RegisteredOptions, std::allocator<rocksdb::Configurable::RegisteredOptions>>::_Vector_impl" }
%"struct.std::_Vector_base<rocksdb::Configurable::RegisteredOptions, std::allocator<rocksdb::Configurable::RegisteredOptions>>::_Vector_impl" = type { %"struct.std::_Vector_base<rocksdb::Configurable::RegisteredOptions, std::allocator<rocksdb::Configurable::RegisteredOptions>>::_Vector_impl_data" }
%"struct.std::_Vector_base<rocksdb::Configurable::RegisteredOptions, std::allocator<rocksdb::Configurable::RegisteredOptions>>::_Vector_impl_data" = type { ptr, ptr, ptr }
%"class.rocksdb::CompareInterface" = type { ptr }
%"class.rocksdb::test::SimpleSuffixReverseComparator" = type { %"class.rocksdb::Comparator" }

@__dso_handle = external hidden global i8
@_ZTVN7rocksdb12CustomizableE = external unnamed_addr constant { [21 x ptr] }, align 8
@_ZTVN7rocksdb12ConfigurableE = external unnamed_addr constant { [16 x ptr] }, align 8
@_ZTVN7rocksdb16CompareInterfaceE = linkonce_odr unnamed_addr constant { [5 x ptr] } { [5 x ptr] [ptr null, ptr null, ptr @_ZN7rocksdb16CompareInterfaceD2Ev, ptr @_ZN7rocksdb16CompareInterfaceD0Ev, ptr @__cxa_pure_virtual] }, comdat, align 8
@"_ZZZN7rocksdb4test19RegisterTestObjectsERNS_13ObjectLibraryERKNSt7__cxx1112basic_stringIcSt11char_traitsIcESaIcEEEENK3$_0clESA_PSt10unique_ptrIKNS_10ComparatorESt14default_deleteISE_EEPS8_E4ssrc" = internal global %"class.rocksdb::test::SimpleSuffixReverseComparator" zeroinitializer, align 8
@"_ZGVZZN7rocksdb4test19RegisterTestObjectsERNS_13ObjectLibraryERKNSt7__cxx1112basic_stringIcSt11char_traitsIcESaIcEEEENK3$_0clESA_PSt10unique_ptrIKNS_10ComparatorESt14default_deleteISE_EEPS8_E4ssrc" = internal global i64 0, align 8

; Function Attrs: mustprogress nounwind uwtable
define linkonce_odr void @_ZNSt15__new_allocatorIN7rocksdb12Configurable17RegisteredOptionsEEC2Ev(ptr noundef nonnull align 1 dereferenceable(1) %0) unnamed_addr #3 comdat align 2 {
  %2 = alloca ptr, align 8
  store ptr %0, ptr %2, align 8, !tbaa !749
  ret void
}

; Function Attrs: mustprogress nounwind uwtable
define linkonce_odr void @_ZNSt12_Vector_baseIN7rocksdb12Configurable17RegisteredOptionsESaIS2_EE17_Vector_impl_dataC2Ev(ptr noundef nonnull align 8 dereferenceable(24) %0) unnamed_addr #3 comdat align 2 {
  %2 = alloca ptr, align 8
  store ptr %0, ptr %2, align 8, !tbaa !744
  %3 = load ptr, ptr %2, align 8
  %4 = getelementptr inbounds nuw %"struct.std::_Vector_base<rocksdb::Configurable::RegisteredOptions, std::allocator<rocksdb::Configurable::RegisteredOptions>>::_Vector_impl_data", ptr %3, i32 0, i32 0
  store ptr null, ptr %4, align 8, !tbaa !746
  %5 = getelementptr inbounds nuw %"struct.std::_Vector_base<rocksdb::Configurable::RegisteredOptions, std::allocator<rocksdb::Configurable::RegisteredOptions>>::_Vector_impl_data", ptr %3, i32 0, i32 1
  store ptr null, ptr %5, align 8, !tbaa !747
  %6 = getelementptr inbounds nuw %"struct.std::_Vector_base<rocksdb::Configurable::RegisteredOptions, std::allocator<rocksdb::Configurable::RegisteredOptions>>::_Vector_impl_data", ptr %3, i32 0, i32 2
  store ptr null, ptr %6, align 8, !tbaa !748
  ret void
}

; Function Attrs: mustprogress nounwind uwtable
define linkonce_odr void @_ZNSaIN7rocksdb12Configurable17RegisteredOptionsEEC2Ev(ptr noundef nonnull align 1 dereferenceable(1) %0) unnamed_addr #3 comdat align 2 {
  %2 = alloca ptr, align 8
  store ptr %0, ptr %2, align 8, !tbaa !742
  %3 = load ptr, ptr %2, align 8
  call void @_ZNSt15__new_allocatorIN7rocksdb12Configurable17RegisteredOptionsEEC2Ev(ptr noundef nonnull align 1 dereferenceable(1) %3) #4
  ret void
}

; Function Attrs: mustprogress nounwind uwtable
define linkonce_odr void @_ZNSt12_Vector_baseIN7rocksdb12Configurable17RegisteredOptionsESaIS2_EE12_Vector_implC2Ev(ptr noundef nonnull align 8 dereferenceable(24) %0) unnamed_addr #3 comdat align 2 {
  %2 = alloca ptr, align 8
  store ptr %0, ptr %2, align 8, !tbaa !740
  %3 = load ptr, ptr %2, align 8
  call void @_ZNSaIN7rocksdb12Configurable17RegisteredOptionsEEC2Ev(ptr noundef nonnull align 1 dereferenceable(1) %3) #4
  call void @_ZNSt12_Vector_baseIN7rocksdb12Configurable17RegisteredOptionsESaIS2_EE17_Vector_impl_dataC2Ev(ptr noundef nonnull align 8 dereferenceable(24) %3) #4
  ret void
}

; Function Attrs: mustprogress nounwind uwtable
define linkonce_odr void @_ZNSt12_Vector_baseIN7rocksdb12Configurable17RegisteredOptionsESaIS2_EEC2Ev(ptr noundef nonnull align 8 dereferenceable(24) %0) unnamed_addr #3 comdat align 2 {
  %2 = alloca ptr, align 8
  store ptr %0, ptr %2, align 8, !tbaa !738
  %3 = load ptr, ptr %2, align 8
  %4 = getelementptr inbounds nuw %"struct.std::_Vector_base.30", ptr %3, i32 0, i32 0
  call void @_ZNSt12_Vector_baseIN7rocksdb12Configurable17RegisteredOptionsESaIS2_EE12_Vector_implC2Ev(ptr noundef nonnull align 8 dereferenceable(24) %4) #4
  ret void
}

; Function Attrs: mustprogress nounwind uwtable
define linkonce_odr void @_ZNSt6vectorIN7rocksdb12Configurable17RegisteredOptionsESaIS2_EEC2Ev(ptr noundef nonnull align 8 dereferenceable(24) %0) unnamed_addr #3 comdat align 2 {
  %2 = alloca ptr, align 8
  store ptr %0, ptr %2, align 8, !tbaa !736
  %3 = load ptr, ptr %2, align 8
  call void @_ZNSt12_Vector_baseIN7rocksdb12Configurable17RegisteredOptionsESaIS2_EEC2Ev(ptr noundef nonnull align 8 dereferenceable(24) %3) #4
  ret void
}

; Function Attrs: inlinehint mustprogress nounwind uwtable
define linkonce_odr void @_ZN7rocksdb12ConfigurableC2Ev(ptr noundef nonnull align 8 dereferenceable(32) %0) unnamed_addr #1 comdat align 2 {
  %2 = alloca ptr, align 8
  store ptr %0, ptr %2, align 8, !tbaa !732
  %3 = load ptr, ptr %2, align 8
  store ptr getelementptr inbounds inrange(-16, 112) ({ [16 x ptr] }, ptr @_ZTVN7rocksdb12ConfigurableE, i32 0, i32 0, i32 2), ptr %3, align 8, !tbaa !178
  %4 = getelementptr inbounds nuw %"class.rocksdb::Configurable", ptr %3, i32 0, i32 1
  call void @_ZNSt6vectorIN7rocksdb12Configurable17RegisteredOptionsESaIS2_EEC2Ev(ptr noundef nonnull align 8 dereferenceable(24) %4) #4
  ret void
}

; Function Attrs: inlinehint mustprogress nounwind uwtable
define linkonce_odr void @_ZN7rocksdb16CompareInterfaceC2Ev(ptr noundef nonnull align 8 dereferenceable(8) %0) unnamed_addr #1 comdat align 2 {
  %2 = alloca ptr, align 8
  store ptr %0, ptr %2, align 8, !tbaa !587
  %3 = load ptr, ptr %2, align 8
  store ptr getelementptr inbounds inrange(-16, 24) ({ [5 x ptr] }, ptr @_ZTVN7rocksdb16CompareInterfaceE, i32 0, i32 0, i32 2), ptr %3, align 8, !tbaa !178
  ret void
}

; Function Attrs: inlinehint mustprogress nounwind uwtable
define linkonce_odr void @_ZN7rocksdb12CustomizableC2Ev(ptr noundef nonnull align 8 dereferenceable(32) %0) unnamed_addr #1 comdat align 2 {
  %2 = alloca ptr, align 8
  store ptr %0, ptr %2, align 8, !tbaa !734
  %3 = load ptr, ptr %2, align 8
  call void @_ZN7rocksdb12ConfigurableC2Ev(ptr noundef nonnull align 8 dereferenceable(32) %3) #4
  store ptr getelementptr inbounds inrange(-16, 152) ({ [21 x ptr] }, ptr @_ZTVN7rocksdb12CustomizableE, i32 0, i32 0, i32 2), ptr %3, align 8, !tbaa !178
  ret void
}

; Function Attrs: mustprogress nounwind uwtable
define linkonce_odr void @_ZN7rocksdb10ComparatorC2Ev(ptr noundef nonnull align 8 dereferenceable(48) %0) unnamed_addr #3 comdat align 2 {
  %2 = alloca ptr, align 8
  store ptr %0, ptr %2, align 8, !tbaa !180
  %3 = load ptr, ptr %2, align 8
  call void @_ZN7rocksdb12CustomizableC2Ev(ptr noundef nonnull align 8 dereferenceable(32) %3) #4
  %4 = getelementptr inbounds i8, ptr %3, i64 32
  call void @_ZN7rocksdb16CompareInterfaceC2Ev(ptr noundef nonnull align 8 dereferenceable(8) %4) #4
  store ptr getelementptr inbounds inrange(-16, 248) ({ [33 x ptr], [5 x ptr] }, ptr @_ZTVN7rocksdb10ComparatorE, i32 0, i32 0, i32 2), ptr %3, align 8, !tbaa !178
  %5 = getelementptr inbounds i8, ptr %3, i64 32
  store ptr getelementptr inbounds inrange(-16, 24) ({ [33 x ptr], [5 x ptr] }, ptr @_ZTVN7rocksdb10ComparatorE, i32 0, i32 1, i32 2), ptr %5, align 8, !tbaa !178
  %6 = getelementptr inbounds nuw %"class.rocksdb::Comparator", ptr %3, i32 0, i32 2
  store i64 0, ptr %6, align 8, !tbaa !729
  ret void
}

; Function Attrs: mustprogress nounwind uwtable
define linkonce_odr void @_ZN7rocksdb4test29SimpleSuffixReverseComparatorC2Ev(ptr noundef nonnull align 8 dereferenceable(48) %0) unnamed_addr #3 comdat align 2 {
  %2 = alloca ptr, align 8
  store ptr %0, ptr %2, align 8, !tbaa !1505
  %3 = load ptr, ptr %2, align 8
  call void @_ZN7rocksdb10ComparatorC2Ev(ptr noundef nonnull align 8 dereferenceable(48) %3)
  store ptr getelementptr inbounds inrange(-16, 256) ({ [34 x ptr], [5 x ptr] }, ptr @_ZTVN7rocksdb4test29SimpleSuffixReverseComparatorE, i32 0, i32 0, i32 2), ptr %3, align 8, !tbaa !178
  %4 = getelementptr inbounds i8, ptr %3, i64 32
  store ptr getelementptr inbounds inrange(-16, 24) ({ [34 x ptr], [5 x ptr] }, ptr @_ZTVN7rocksdb4test29SimpleSuffixReverseComparatorE, i32 0, i32 1, i32 2), ptr %4, align 8, !tbaa !178
  ret void
}

; Function Attrs: inlinehint mustprogress uwtable
define internal noundef ptr @"_ZZN7rocksdb4test19RegisterTestObjectsERNS_13ObjectLibraryERKNSt7__cxx1112basic_stringIcSt11char_traitsIcESaIcEEEENK3$_0clESA_PSt10unique_ptrIKNS_10ComparatorESt14default_deleteISE_EEPS8_"(ptr noundef nonnull align 1 dereferenceable(1) %0, ptr noundef nonnull align 8 dereferenceable(32) %1, ptr noundef %2, ptr noundef %3) #8 align 2 personality ptr @__gxx_personality_v0 {
  %5 = alloca ptr, align 8
  %6 = alloca ptr, align 8
  %7 = alloca ptr, align 8
  %8 = alloca ptr, align 8
  %9 = alloca ptr, align 8
  %10 = alloca i32, align 4
  store ptr %0, ptr %5, align 8, !tbaa !36
  store ptr %1, ptr %6, align 8, !tbaa !29
  store ptr %2, ptr %7, align 8, !tbaa !1503
  store ptr %3, ptr %8, align 8, !tbaa !29
  %11 = load atomic i8, ptr @"_ZGVZZN7rocksdb4test19RegisterTestObjectsERNS_13ObjectLibraryERKNSt7__cxx1112basic_stringIcSt11char_traitsIcESaIcEEEENK3$_0clESA_PSt10unique_ptrIKNS_10ComparatorESt14default_deleteISE_EEPS8_E4ssrc" acquire, align 8
  %12 = icmp eq i8 %11, 0
  br i1 %12, label %13, label %19, !prof !160

13:                                               ; preds = %4
  %14 = call i32 @__cxa_guard_acquire(ptr @"_ZGVZZN7rocksdb4test19RegisterTestObjectsERNS_13ObjectLibraryERKNSt7__cxx1112basic_stringIcSt11char_traitsIcESaIcEEEENK3$_0clESA_PSt10unique_ptrIKNS_10ComparatorESt14default_deleteISE_EEPS8_E4ssrc") #4
  %15 = icmp ne i32 %14, 0
  br i1 %15, label %16, label %19

16:                                               ; preds = %13
  invoke void @_ZN7rocksdb4test29SimpleSuffixReverseComparatorC2Ev(ptr noundef nonnull align 8 dereferenceable(48) @"_ZZZN7rocksdb4test19RegisterTestObjectsERNS_13ObjectLibraryERKNSt7__cxx1112basic_stringIcSt11char_traitsIcESaIcEEEENK3$_0clESA_PSt10unique_ptrIKNS_10ComparatorESt14default_deleteISE_EEPS8_E4ssrc")
          to label %17 unwind label %20

17:                                               ; preds = %16
  %18 = call i32 @__cxa_atexit(ptr @_ZN7rocksdb10ComparatorD2Ev, ptr @"_ZZZN7rocksdb4test19RegisterTestObjectsERNS_13ObjectLibraryERKNSt7__cxx1112basic_stringIcSt11char_traitsIcESaIcEEEENK3$_0clESA_PSt10unique_ptrIKNS_10ComparatorESt14default_deleteISE_EEPS8_E4ssrc", ptr @__dso_handle) #4
  call void @__cxa_guard_release(ptr @"_ZGVZZN7rocksdb4test19RegisterTestObjectsERNS_13ObjectLibraryERKNSt7__cxx1112basic_stringIcSt11char_traitsIcESaIcEEEENK3$_0clESA_PSt10unique_ptrIKNS_10ComparatorESt14default_deleteISE_EEPS8_E4ssrc") #4
  br label %19

19:                                               ; preds = %17, %13, %4
  ret ptr @"_ZZZN7rocksdb4test19RegisterTestObjectsERNS_13ObjectLibraryERKNSt7__cxx1112basic_stringIcSt11char_traitsIcESaIcEEEENK3$_0clESA_PSt10unique_ptrIKNS_10ComparatorESt14default_deleteISE_EEPS8_E4ssrc"

20:                                               ; preds = %16
  %21 = landingpad { ptr, i32 }
          cleanup
  %22 = extractvalue { ptr, i32 } %21, 0
  store ptr %22, ptr %9, align 8
  %23 = extractvalue { ptr, i32 } %21, 1
  store i32 %23, ptr %10, align 4
  call void @__cxa_guard_abort(ptr @"_ZGVZZN7rocksdb4test19RegisterTestObjectsERNS_13ObjectLibraryERKNSt7__cxx1112basic_stringIcSt11char_traitsIcESaIcEEEENK3$_0clESA_PSt10unique_ptrIKNS_10ComparatorESt14default_deleteISE_EEPS8_E4ssrc") #4
  br label %24

24:                                               ; preds = %20
  %25 = load ptr, ptr %9, align 8
  %26 = load i32, ptr %10, align 4
  %27 = insertvalue { ptr, i32 } poison, ptr %25, 0
  %28 = insertvalue { ptr, i32 } %27, i32 %26, 1
  resume { ptr, i32 } %28
}

; Function Attrs: mustprogress nounwind uwtable
define linkonce_odr noundef ptr @_ZNKSt9_Any_data9_M_accessEv(ptr noundef nonnull align 8 dereferenceable(16) %0) #3 comdat align 2 {
  %2 = alloca ptr, align 8
  store ptr %0, ptr %2, align 8, !tbaa !1262
  %3 = load ptr, ptr %2, align 8
  %4 = getelementptr inbounds [16 x i8], ptr %3, i64 0, i64 0
  ret ptr %4
}

; Function Attrs: mustprogress uwtable
define internal noundef ptr @"_ZSt13__invoke_implIPN7rocksdb4test29SimpleSuffixReverseComparatorERZNS1_19RegisterTestObjectsERNS0_13ObjectLibraryERKNSt7__cxx1112basic_stringIcSt11char_traitsIcESaIcEEEE3$_0JSD_PSt10unique_ptrIKNS0_10ComparatorESt14default_deleteISI_EEPSB_EET_St14__invoke_otherOT0_DpOT1_"(ptr noundef nonnull align 1 dereferenceable(1) %0, ptr noundef nonnull align 8 dereferenceable(32) %1, ptr noundef nonnull align 8 dereferenceable(8) %2, ptr noundef nonnull align 8 dereferenceable(8) %3) #5 {
  %5 = alloca ptr, align 8
  %6 = alloca ptr, align 8
  %7 = alloca ptr, align 8
  %8 = alloca ptr, align 8
  store ptr %0, ptr %5, align 8, !tbaa !36
  store ptr %1, ptr %6, align 8, !tbaa !29
  store ptr %2, ptr %7, align 8, !tbaa !1501
  store ptr %3, ptr %8, align 8, !tbaa !1109
  %9 = load ptr, ptr %5, align 8, !tbaa !36
  %10 = load ptr, ptr %6, align 8, !tbaa !29
  %11 = load ptr, ptr %7, align 8, !tbaa !1501
  %12 = load ptr, ptr %11, align 8, !tbaa !1503
  %13 = load ptr, ptr %8, align 8, !tbaa !1109
  %14 = load ptr, ptr %13, align 8, !tbaa !29
  %15 = call noundef ptr @"_ZZN7rocksdb4test19RegisterTestObjectsERNS_13ObjectLibraryERKNSt7__cxx1112basic_stringIcSt11char_traitsIcESaIcEEEENK3$_0clESA_PSt10unique_ptrIKNS_10ComparatorESt14default_deleteISE_EEPS8_"(ptr noundef nonnull align 1 dereferenceable(1) %9, ptr noundef nonnull align 8 dereferenceable(32) %10, ptr noundef %12, ptr noundef %14)
  ret ptr %15
}

; Function Attrs: mustprogress nounwind uwtable
define internal noundef nonnull align 1 dereferenceable(1) ptr @"_ZNKSt9_Any_data9_M_accessIZN7rocksdb4test19RegisterTestObjectsERNS1_13ObjectLibraryERKNSt7__cxx1112basic_stringIcSt11char_traitsIcESaIcEEEE3$_0EERKT_v"(ptr noundef nonnull align 8 dereferenceable(16) %0) #3 align 2 {
  %2 = alloca ptr, align 8
  store ptr %0, ptr %2, align 8, !tbaa !1262
  %3 = load ptr, ptr %2, align 8
  %4 = call noundef ptr @_ZNKSt9_Any_data9_M_accessEv(ptr noundef nonnull align 8 dereferenceable(16) %3) #4
  ret ptr %4
}

; Function Attrs: mustprogress uwtable
define internal noundef ptr @"_ZSt10__invoke_rIPKN7rocksdb10ComparatorERZNS0_4test19RegisterTestObjectsERNS0_13ObjectLibraryERKNSt7__cxx1112basic_stringIcSt11char_traitsIcESaIcEEEE3$_0JSE_PSt10unique_ptrIS2_St14default_deleteIS2_EEPSC_EENSt9enable_ifIX16is_invocable_r_vIT_T0_DpT1_EESO_E4typeEOSP_DpOSQ_"(ptr noundef nonnull align 1 dereferenceable(1) %0, ptr noundef nonnull align 8 dereferenceable(32) %1, ptr noundef nonnull align 8 dereferenceable(8) %2, ptr noundef nonnull align 8 dereferenceable(8) %3) #5 {
  %5 = alloca ptr, align 8
  %6 = alloca ptr, align 8
  %7 = alloca ptr, align 8
  %8 = alloca ptr, align 8
  store ptr %0, ptr %5, align 8, !tbaa !36
  store ptr %1, ptr %6, align 8, !tbaa !29
  store ptr %2, ptr %7, align 8, !tbaa !1501
  store ptr %3, ptr %8, align 8, !tbaa !1109
  %9 = load ptr, ptr %5, align 8, !tbaa !36
  %10 = load ptr, ptr %6, align 8, !tbaa !29
  %11 = load ptr, ptr %7, align 8, !tbaa !1501
  %12 = load ptr, ptr %8, align 8, !tbaa !1109
  %13 = call noundef ptr @"_ZSt13__invoke_implIPN7rocksdb4test29SimpleSuffixReverseComparatorERZNS1_19RegisterTestObjectsERNS0_13ObjectLibraryERKNSt7__cxx1112basic_stringIcSt11char_traitsIcESaIcEEEE3$_0JSD_PSt10unique_ptrIKNS0_10ComparatorESt14default_deleteISI_EEPSB_EET_St14__invoke_otherOT0_DpOT1_"(ptr noundef nonnull align 1 dereferenceable(1) %9, ptr noundef nonnull align 8 dereferenceable(32) %10, ptr noundef nonnull align 8 dereferenceable(8) %11, ptr noundef nonnull align 8 dereferenceable(8) %12)
  ret ptr %13
}

; Function Attrs: mustprogress nounwind uwtable
define internal noundef ptr @"_ZNSt14_Function_base13_Base_managerIZN7rocksdb4test19RegisterTestObjectsERNS1_13ObjectLibraryERKNSt7__cxx1112basic_stringIcSt11char_traitsIcESaIcEEEE3$_0E14_M_get_pointerERKSt9_Any_data"(ptr noundef nonnull align 8 dereferenceable(16) %0) #3 align 2 {
  %2 = alloca ptr, align 8
  %3 = alloca ptr, align 8
  store ptr %0, ptr %2, align 8, !tbaa !1262
  call void @llvm.lifetime.start.p0(i64 8, ptr %3) #4
  %4 = load ptr, ptr %2, align 8, !tbaa !1262
  %5 = call noundef nonnull align 1 dereferenceable(1) ptr @"_ZNKSt9_Any_data9_M_accessIZN7rocksdb4test19RegisterTestObjectsERNS1_13ObjectLibraryERKNSt7__cxx1112basic_stringIcSt11char_traitsIcESaIcEEEE3$_0EERKT_v"(ptr noundef nonnull align 8 dereferenceable(16) %4) #4
  store ptr %5, ptr %3, align 8, !tbaa !36
  %6 = load ptr, ptr %3, align 8, !tbaa !36
  call void @llvm.lifetime.end.p0(i64 8, ptr %3) #4
  ret ptr %6
}

; Function Attrs: mustprogress uwtable
define internal noundef ptr @"_ZNSt17_Function_handlerIFPKN7rocksdb10ComparatorERKNSt7__cxx1112basic_stringIcSt11char_traitsIcESaIcEEEPSt10unique_ptrIS2_St14default_deleteIS2_EEPS9_EZNS0_4test19RegisterTestObjectsERNS0_13ObjectLibraryESB_E3$_0E9_M_invokeERKSt9_Any_dataSB_OSG_OSH_"(ptr noundef nonnull align 8 dereferenceable(16) %0, ptr noundef nonnull align 8 dereferenceable(32) %1, ptr noundef nonnull align 8 dereferenceable(8) %2, ptr noundef nonnull align 8 dereferenceable(8) %3) #5 align 2 {
  %5 = alloca ptr, align 8
  %6 = alloca ptr, align 8
  %7 = alloca ptr, align 8
  %8 = alloca ptr, align 8
  store ptr %0, ptr %5, align 8, !tbaa !1262
  store ptr %1, ptr %6, align 8, !tbaa !29
  store ptr %2, ptr %7, align 8, !tbaa !1501
  store ptr %3, ptr %8, align 8, !tbaa !1109
  %9 = load ptr, ptr %5, align 8, !tbaa !1262
  %10 = call noundef ptr @"_ZNSt14_Function_base13_Base_managerIZN7rocksdb4test19RegisterTestObjectsERNS1_13ObjectLibraryERKNSt7__cxx1112basic_stringIcSt11char_traitsIcESaIcEEEE3$_0E14_M_get_pointerERKSt9_Any_data"(ptr noundef nonnull align 8 dereferenceable(16) %9) #4
  %11 = load ptr, ptr %6, align 8, !tbaa !29
  %12 = load ptr, ptr %7, align 8, !tbaa !1501
  %13 = load ptr, ptr %8, align 8, !tbaa !1109
  %14 = call noundef ptr @"_ZSt10__invoke_rIPKN7rocksdb10ComparatorERZNS0_4test19RegisterTestObjectsERNS0_13ObjectLibraryERKNSt7__cxx1112basic_stringIcSt11char_traitsIcESaIcEEEE3$_0JSE_PSt10unique_ptrIS2_St14default_deleteIS2_EEPSC_EENSt9enable_ifIX16is_invocable_r_vIT_T0_DpT1_EESO_E4typeEOSP_DpOSQ_"(ptr noundef nonnull align 1 dereferenceable(1) %10, ptr noundef nonnull align 8 dereferenceable(32) %11, ptr noundef nonnull align 8 dereferenceable(8) %12, ptr noundef nonnull align 8 dereferenceable(8) %13)
  ret ptr %14
}