; Function Attrs: mustprogress nofree nounwind uwtable
define internal noundef nonnull ptr @"_ZNSt17_Function_handlerIFPKN7rocksdb10ComparatorERKNSt7__cxx1112basic_stringIcSt11char_traitsIcESaIcEEEPSt10unique_ptrIS2_St14default_deleteIS2_EEPS9_EZNS0_4test19RegisterTestObjectsERNS0_13ObjectLibraryESB_E3$_0E9_M_invokeERKSt9_Any_dataSB_OSG_OSH_"(ptr nonnull readnone align 8 captures(none) %0, ptr nonnull readnone align 8 captures(none) %1, ptr nonnull readnone align 8 captures(none) %2, ptr nonnull readnone align 8 captures(none) %3) #10 align 2 personality ptr @__gxx_personality_v0 {
  %5 = load atomic i8, ptr @"_ZGVZZN7rocksdb4test19RegisterTestObjectsERNS_13ObjectLibraryERKNSt7__cxx1112basic_stringIcSt11char_traitsIcESaIcEEEENK3$_0clESA_PSt10unique_ptrIKNS_10ComparatorESt14default_deleteISE_EEPS8_E4ssrc" acquire, align 8
  %6 = icmp eq i8 %5, 0
  br i1 %6, label %7, label %"_ZSt10__invoke_rIPKN7rocksdb10ComparatorERZNS0_4test19RegisterTestObjectsERNS0_13ObjectLibraryERKNSt7__cxx1112basic_stringIcSt11char_traitsIcESaIcEEEE3$_0JSE_PSt10unique_ptrIS2_St14default_deleteIS2_EEPSC_EENSt9enable_ifIX16is_invocable_r_vIT_T0_DpT1_EESO_E4typeEOSP_DpOSQ_.exit", !prof !48

7:                                                ; preds = %4
  %8 = tail call i32 @__cxa_guard_acquire(ptr nonnull @"_ZGVZZN7rocksdb4test19RegisterTestObjectsERNS_13ObjectLibraryERKNSt7__cxx1112basic_stringIcSt11char_traitsIcESaIcEEEENK3$_0clESA_PSt10unique_ptrIKNS_10ComparatorESt14default_deleteISE_EEPS8_E4ssrc") #34
  %.not.i.i.i = icmp eq i32 %8, 0
  br i1 %.not.i.i.i, label %"_ZSt10__invoke_rIPKN7rocksdb10ComparatorERZNS0_4test19RegisterTestObjectsERNS0_13ObjectLibraryERKNSt7__cxx1112basic_stringIcSt11char_traitsIcESaIcEEEE3$_0JSE_PSt10unique_ptrIS2_St14default_deleteIS2_EEPSC_EENSt9enable_ifIX16is_invocable_r_vIT_T0_DpT1_EESO_E4typeEOSP_DpOSQ_.exit", label %9

9:                                                ; preds = %7
  tail call void @llvm.memset.p0.i64(ptr noundef nonnull align 8 dereferenceable(24) getelementptr inbounds nuw (i8, ptr @"_ZZZN7rocksdb4test19RegisterTestObjectsERNS_13ObjectLibraryERKNSt7__cxx1112basic_stringIcSt11char_traitsIcESaIcEEEENK3$_0clESA_PSt10unique_ptrIKNS_10ComparatorESt14default_deleteISE_EEPS8_E4ssrc", i64 8), i8 0, i64 24, i1 false)
  store i64 0, ptr getelementptr inbounds nuw (i8, ptr @"_ZZZN7rocksdb4test19RegisterTestObjectsERNS_13ObjectLibraryERKNSt7__cxx1112basic_stringIcSt11char_traitsIcESaIcEEEENK3$_0clESA_PSt10unique_ptrIKNS_10ComparatorESt14default_deleteISE_EEPS8_E4ssrc", i64 40), align 8, !tbaa !55
  store ptr getelementptr inbounds nuw inrange(-16, 256) (i8, ptr @_ZTVN7rocksdb4test29SimpleSuffixReverseComparatorE, i64 16), ptr @"_ZZZN7rocksdb4test19RegisterTestObjectsERNS_13ObjectLibraryERKNSt7__cxx1112basic_stringIcSt11char_traitsIcESaIcEEEENK3$_0clESA_PSt10unique_ptrIKNS_10ComparatorESt14default_deleteISE_EEPS8_E4ssrc", align 8, !tbaa !25
  store ptr getelementptr inbounds nuw inrange(-16, 24) (i8, ptr @_ZTVN7rocksdb4test29SimpleSuffixReverseComparatorE, i64 288), ptr getelementptr inbounds nuw (i8, ptr @"_ZZZN7rocksdb4test19RegisterTestObjectsERNS_13ObjectLibraryERKNSt7__cxx1112basic_stringIcSt11char_traitsIcESaIcEEEENK3$_0clESA_PSt10unique_ptrIKNS_10ComparatorESt14default_deleteISE_EEPS8_E4ssrc", i64 32), align 8, !tbaa !25
  %10 = tail call i32 @__cxa_atexit(ptr nonnull @_ZN7rocksdb10ComparatorD2Ev, ptr nonnull @"_ZZZN7rocksdb4test19RegisterTestObjectsERNS_13ObjectLibraryERKNSt7__cxx1112basic_stringIcSt11char_traitsIcESaIcEEEENK3$_0clESA_PSt10unique_ptrIKNS_10ComparatorESt14default_deleteISE_EEPS8_E4ssrc", ptr nonnull @__dso_handle) #34
  tail call void @__cxa_guard_release(ptr nonnull @"_ZGVZZN7rocksdb4test19RegisterTestObjectsERNS_13ObjectLibraryERKNSt7__cxx1112basic_stringIcSt11char_traitsIcESaIcEEEENK3$_0clESA_PSt10unique_ptrIKNS_10ComparatorESt14default_deleteISE_EEPS8_E4ssrc") #34
  br label %"_ZSt10__invoke_rIPKN7rocksdb10ComparatorERZNS0_4test19RegisterTestObjectsERNS0_13ObjectLibraryERKNSt7__cxx1112basic_stringIcSt11char_traitsIcESaIcEEEE3$_0JSE_PSt10unique_ptrIS2_St14default_deleteIS2_EEPSC_EENSt9enable_ifIX16is_invocable_r_vIT_T0_DpT1_EESO_E4typeEOSP_DpOSQ_.exit"

"_ZSt10__invoke_rIPKN7rocksdb10ComparatorERZNS0_4test19RegisterTestObjectsERNS0_13ObjectLibraryERKNSt7__cxx1112basic_stringIcSt11char_traitsIcESaIcEEEE3$_0JSE_PSt10unique_ptrIS2_St14default_deleteIS2_EEPSC_EENSt9enable_ifIX16is_invocable_r_vIT_T0_DpT1_EESO_E4typeEOSP_DpOSQ_.exit": ; preds = %4, %7, %9
  ret ptr @"_ZZZN7rocksdb4test19RegisterTestObjectsERNS_13ObjectLibraryERKNSt7__cxx1112basic_stringIcSt11char_traitsIcESaIcEEEENK3$_0clESA_PSt10unique_ptrIKNS_10ComparatorESt14default_deleteISE_EEPS8_E4ssrc"
}